target datalayout = "e-m:e-p270:32:32-p271:32:32-p272:64:64-i64:64-i128:128-f80:128-n8:16:32:64-S128"
target triple = "x86_64-unknown-linux-gnu"

%"class.boost::detail::shared_count" = type { ptr }
%"class.boost::shared_ptr.50" = type { ptr, %"class.boost::detail::shared_count" }
%"class.QuantLib::Array" = type { %"class.std::unique_ptr", i64 }
%"class.std::unique_ptr" = type { %"struct.std::__uniq_ptr_data" }
%"struct.std::__uniq_ptr_data" = type { %"class.std::__uniq_ptr_impl" }
%"class.std::__uniq_ptr_impl" = type { %"class.std::tuple" }
%"class.std::tuple" = type { %"struct.std::_Tuple_impl" }
%"struct.std::_Tuple_impl" = type { %"struct.std::_Head_base.34" }
%"struct.std::_Head_base.34" = type { ptr }
%"class.QuantLib::Constraint" = type { %"class.boost::shared_ptr.48" }
%"class.boost::shared_ptr.48" = type { ptr, %"class.boost::detail::shared_count" }
%"class.QuantLib::FittedBondDiscountCurve::FittingMethod" = type { ptr, i8, ptr, %"class.QuantLib::Array", %"class.QuantLib::Array", %"class.boost::shared_ptr.49", %"class.QuantLib::Array", %"class.QuantLib::Array", i8, i32, double, i32, %"class.boost::shared_ptr.50", %"class.QuantLib::Constraint", double, double }
%"class.boost::shared_ptr.49" = type { ptr, %"class.boost::detail::shared_count" }
%"class.QuantLib::SpreadFittingMethod" = type { %"class.QuantLib::FittedBondDiscountCurve::FittingMethod", %"class.boost::shared_ptr.92", double, %"class.QuantLib::Handle" }
%"class.boost::shared_ptr.92" = type { ptr, %"class.boost::detail::shared_count" }
%"class.QuantLib::Handle" = type { %"class.boost::shared_ptr.91" }
%"class.boost::shared_ptr.91" = type { ptr, %"class.boost::detail::shared_count" }
%"class.boost::shared_ptr.101" = type { ptr, %"class.boost::detail::shared_count" }
%"class.QuantLib::Date" = type { i64 }

@.str.13 = private unnamed_addr constant [8 x i8] c"px != 0\00", align 1
@.str.14 = private unnamed_addr constant [102 x i8] c"generated/home/dtcxzyw/WorkSpace/SDK/vcpkg/installed/x64-linux/include/boost/smart_ptr/shared_ptr.hpp\00", align 1
@__PRETTY_FUNCTION__._ZNK5boost10shared_ptrIN8QuantLib18YieldTermStructureEEptEv = private unnamed_addr constant [153 x i8] c"typename boost::detail::sp_member_access<T>::type boost::shared_ptr<QuantLib::YieldTermStructure>::operator->() const [T = QuantLib::YieldTermStructure]\00", align 1

; Function Attrs: inlinehint mustprogress nounwind uwtable
define linkonce_odr noundef i64 @_ZNK8QuantLib4Date12serialNumberEv(ptr noundef nonnull align 8 dereferenceable(8) %this) #7 comdat align 2 {
entry:
  %this.addr = alloca ptr, align 8
  store ptr %this, ptr %this.addr, align 8, !tbaa !3
  %this1 = load ptr, ptr %this.addr, align 8
  %serialNumber_ = getelementptr inbounds nuw %"class.QuantLib::Date", ptr %this1, i32 0, i32 0
  %0 = load i64, ptr %serialNumber_, align 8, !tbaa !82
  ret i64 %0
}

; Function Attrs: inlinehint mustprogress uwtable
define linkonce_odr noundef double @_ZNK8QuantLib18YieldTermStructure8discountERKNS_4DateEb(ptr noundef nonnull align 8 dereferenceable(152) %this, ptr noundef nonnull align 8 dereferenceable(8) %d, i1 noundef zeroext %extrapolate) #4 comdat align 2 {
entry:
  %this.addr = alloca ptr, align 8
  %d.addr = alloca ptr, align 8
  %extrapolate.addr = alloca i8, align 1
  store ptr %this, ptr %this.addr, align 8, !tbaa !3
  store ptr %d, ptr %d.addr, align 8, !tbaa !3
  %storedv = zext i1 %extrapolate to i8
  store i8 %storedv, ptr %extrapolate.addr, align 1, !tbaa !9
  %this1 = load ptr, ptr %this.addr, align 8
  %0 = load ptr, ptr %d.addr, align 8, !tbaa !3
  %call = call noundef double @_ZNK8QuantLib13TermStructure17timeFromReferenceERKNS_4DateE(ptr noundef nonnull align 8 dereferenceable(64) %this1, ptr noundef nonnull align 8 dereferenceable(8) %0)
  %1 = load i8, ptr %extrapolate.addr, align 1, !tbaa !9, !range !15, !noundef !16
  %loadedv = trunc i8 %1 to i1
  %call2 = call noundef double @_ZNK8QuantLib18YieldTermStructure8discountEdb(ptr noundef nonnull align 8 dereferenceable(152) %this1, double noundef %call, i1 noundef zeroext %loadedv)
  ret double %call2
}

; Function Attrs: inlinehint mustprogress uwtable
define linkonce_odr noundef zeroext i1 @_ZN8QuantLibneERKNS_4DateES2_(ptr noundef nonnull align 8 dereferenceable(8) %d1, ptr noundef nonnull align 8 dereferenceable(8) %d2) #4 comdat {
entry:
  %d1.addr = alloca ptr, align 8
  %d2.addr = alloca ptr, align 8
  store ptr %d1, ptr %d1.addr, align 8, !tbaa !3
  store ptr %d2, ptr %d2.addr, align 8, !tbaa !3
  %0 = load ptr, ptr %d1.addr, align 8, !tbaa !3
  %call = call noundef i64 @_ZNK8QuantLib4Date12serialNumberEv(ptr noundef nonnull align 8 dereferenceable(8) %0)
  %1 = load ptr, ptr %d2.addr, align 8, !tbaa !3
  %call1 = call noundef i64 @_ZNK8QuantLib4Date12serialNumberEv(ptr noundef nonnull align 8 dereferenceable(8) %1)
  %cmp = icmp ne i64 %call, %call1
  ret i1 %cmp
}

; Function Attrs: mustprogress uwtable
define linkonce_odr noundef ptr @_ZNK5boost10shared_ptrIN8QuantLib18YieldTermStructureEEptEv(ptr noundef nonnull align 8 dereferenceable(16) %this) #3 comdat align 2 {
entry:
  %this.addr = alloca ptr, align 8
  store ptr %this, ptr %this.addr, align 8, !tbaa !3
  %this1 = load ptr, ptr %this.addr, align 8
  %px = getelementptr inbounds nuw %"class.boost::shared_ptr.101", ptr %this1, i32 0, i32 0
  %0 = load ptr, ptr %px, align 8, !tbaa !68
  %cmp = icmp ne ptr %0, null
  %lnot = xor i1 %cmp, true
  %lnot2 = xor i1 %lnot, true
  %conv = zext i1 %lnot2 to i64
  %expval = call i64 @llvm.expect.i64(i64 %conv, i64 1)
  %tobool = icmp ne i64 %expval, 0
  br i1 %tobool, label %cond.true, label %cond.false

cond.true:                                        ; preds = %entry
  br label %cond.end

cond.false:                                       ; preds = %entry
  call void @_ZN5boost16assertion_failedEPKcS1_S1_l(ptr noundef @.str.13, ptr noundef @__PRETTY_FUNCTION__._ZNK5boost10shared_ptrIN8QuantLib18YieldTermStructureEEptEv, ptr noundef @.str.14, i64 noundef 784)
  br label %cond.end

cond.end:                                         ; preds = %cond.false, %cond.true
  %px3 = getelementptr inbounds nuw %"class.boost::shared_ptr.101", ptr %this1, i32 0, i32 0
  %1 = load ptr, ptr %px3, align 8, !tbaa !68
  ret ptr %1
}

; Function Attrs: mustprogress uwtable
define void @_ZN8QuantLib19SpreadFittingMethod4initEv(ptr noundef nonnull align 8 dereferenceable(216) %this) unnamed_addr #3 align 2 {
entry:
  %this.addr = alloca ptr, align 8
  store ptr %this, ptr %this.addr, align 8, !tbaa !3
  %this1 = load ptr, ptr %this.addr, align 8
  %curve_ = getelementptr inbounds nuw %"class.QuantLib::FittedBondDiscountCurve::FittingMethod", ptr %this1, i32 0, i32 2
  %0 = load ptr, ptr %curve_, align 8, !tbaa !70
  %vtable = load ptr, ptr %0, align 8, !tbaa !7
  %vfn = getelementptr inbounds ptr, ptr %vtable, i64 5
  %1 = load ptr, ptr %vfn, align 8
  %call = call noundef nonnull align 8 dereferenceable(8) ptr %1(ptr noundef nonnull align 8 dereferenceable(64) %0)
  %discountingCurve_ = getelementptr inbounds nuw %"class.QuantLib::SpreadFittingMethod", ptr %this1, i32 0, i32 3
  %call2 = call noundef nonnull align 8 dereferenceable(16) ptr @_ZNK8QuantLib6HandleINS_18YieldTermStructureEEptEv(ptr noundef nonnull align 8 dereferenceable(16) %discountingCurve_)
  %call3 = call noundef ptr @_ZNK5boost10shared_ptrIN8QuantLib18YieldTermStructureEEptEv(ptr noundef nonnull align 8 dereferenceable(16) %call2)
  %vtable4 = load ptr, ptr %call3, align 8, !tbaa !7
  %vfn5 = getelementptr inbounds ptr, ptr %vtable4, i64 5
  %2 = load ptr, ptr %vfn5, align 8
  %call6 = call noundef nonnull align 8 dereferenceable(8) ptr %2(ptr noundef nonnull align 8 dereferenceable(64) %call3)
  %call7 = call noundef zeroext i1 @_ZN8QuantLibneERKNS_4DateES2_(ptr noundef nonnull align 8 dereferenceable(8) %call, ptr noundef nonnull align 8 dereferenceable(8) %call6)
  br i1 %call7, label %if.then, label %if.else

if.then:                                          ; preds = %entry
  %discountingCurve_8 = getelementptr inbounds nuw %"class.QuantLib::SpreadFittingMethod", ptr %this1, i32 0, i32 3
  %call9 = call noundef nonnull align 8 dereferenceable(16) ptr @_ZNK8QuantLib6HandleINS_18YieldTermStructureEEptEv(ptr noundef nonnull align 8 dereferenceable(16) %discountingCurve_8)
  %call10 = call noundef ptr @_ZNK5boost10shared_ptrIN8QuantLib18YieldTermStructureEEptEv(ptr noundef nonnull align 8 dereferenceable(16) %call9)
  %curve_11 = getelementptr inbounds nuw %"class.QuantLib::FittedBondDiscountCurve::FittingMethod", ptr %this1, i32 0, i32 2
  %3 = load ptr, ptr %curve_11, align 8, !tbaa !70
  %vtable12 = load ptr, ptr %3, align 8, !tbaa !7
  %vfn13 = getelementptr inbounds ptr, ptr %vtable12, i64 5
  %4 = load ptr, ptr %vfn13, align 8
  %call14 = call noundef nonnull align 8 dereferenceable(8) ptr %4(ptr noundef nonnull align 8 dereferenceable(64) %3)
  %call15 = call noundef double @_ZNK8QuantLib18YieldTermStructure8discountERKNS_4DateEb(ptr noundef nonnull align 8 dereferenceable(152) %call10, ptr noundef nonnull align 8 dereferenceable(8) %call14, i1 noundef zeroext false)
  %rebase_ = getelementptr inbounds nuw %"class.QuantLib::SpreadFittingMethod", ptr %this1, i32 0, i32 2
  store double %call15, ptr %rebase_, align 8, !tbaa !62
  br label %if.end

if.else:                                          ; preds = %entry
  %rebase_16 = getelementptr inbounds nuw %"class.QuantLib::SpreadFittingMethod", ptr %this1, i32 0, i32 2
  store double 1.000000e+00, ptr %rebase_16, align 8, !tbaa !62
  br label %if.end

if.end:                                           ; preds = %if.else, %if.then
  call void @_ZN8QuantLib23FittedBondDiscountCurve13FittingMethod4initEv(ptr noundef nonnull align 8 dereferenceable(176) %this1)
  ret void
}