; Function Attrs: mustprogress uwtable
define void @_ZN8QuantLib19SpreadFittingMethod4initEv(ptr noundef nonnull align 8 dereferenceable(216) %this) unnamed_addr #3 align 2 {
entry:
  %curve_ = getelementptr inbounds nuw i8, ptr %this, i64 16
  %0 = load ptr, ptr %curve_, align 8, !tbaa !107
  %vtable = load ptr, ptr %0, align 8, !tbaa !14
  %vfn = getelementptr inbounds i8, ptr %vtable, i64 40
  %1 = load ptr, ptr %vfn, align 8
  %call = tail call noundef nonnull align 8 dereferenceable(8) ptr %1(ptr noundef nonnull align 8 dereferenceable(64) %0)
  %discountingCurve_ = getelementptr inbounds nuw i8, ptr %this, i64 200
  %call2 = tail call noundef nonnull align 8 dereferenceable(16) ptr @_ZNK8QuantLib6HandleINS_18YieldTermStructureEEptEv(ptr noundef nonnull align 8 dereferenceable(16) %discountingCurve_)
  %2 = load ptr, ptr %call2, align 8, !tbaa !97
  %cmp.not.i = icmp eq ptr %2, null
  br i1 %cmp.not.i, label %cond.false.i, label %_ZNK5boost10shared_ptrIN8QuantLib18YieldTermStructureEEptEv.exit, !prof !74

cond.false.i:                                     ; preds = %entry
  tail call void @_ZN5boost16assertion_failedEPKcS1_S1_l(ptr noundef nonnull @.str.13, ptr noundef nonnull @__PRETTY_FUNCTION__._ZNK5boost10shared_ptrIN8QuantLib18YieldTermStructureEEptEv, ptr noundef nonnull @.str.14, i64 noundef 784)
  %.pre.i = load ptr, ptr %call2, align 8, !tbaa !97
  br label %_ZNK5boost10shared_ptrIN8QuantLib18YieldTermStructureEEptEv.exit

_ZNK5boost10shared_ptrIN8QuantLib18YieldTermStructureEEptEv.exit: ; preds = %entry, %cond.false.i
  %3 = phi ptr [ %2, %entry ], [ %.pre.i, %cond.false.i ]
  %vtable4 = load ptr, ptr %3, align 8, !tbaa !14
  %vfn5 = getelementptr inbounds i8, ptr %vtable4, i64 40
  %4 = load ptr, ptr %vfn5, align 8
  %call6 = tail call noundef nonnull align 8 dereferenceable(8) ptr %4(ptr noundef nonnull align 8 dereferenceable(64) %3)
  %5 = load i64, ptr %call, align 8, !tbaa !108
  %6 = load i64, ptr %call6, align 8, !tbaa !108
  %cmp.i.not = icmp eq i64 %5, %6
  br i1 %cmp.i.not, label %if.end, label %if.then

if.then:                                          ; preds = %_ZNK5boost10shared_ptrIN8QuantLib18YieldTermStructureEEptEv.exit
  %call9 = tail call noundef nonnull align 8 dereferenceable(16) ptr @_ZNK8QuantLib6HandleINS_18YieldTermStructureEEptEv(ptr noundef nonnull align 8 dereferenceable(16) %discountingCurve_)
  %7 = load ptr, ptr %call9, align 8, !tbaa !97
  %cmp.not.i1 = icmp eq ptr %7, null
  br i1 %cmp.not.i1, label %cond.false.i2, label %_ZNK5boost10shared_ptrIN8QuantLib18YieldTermStructureEEptEv.exit4, !prof !74

cond.false.i2:                                    ; preds = %if.then
  tail call void @_ZN5boost16assertion_failedEPKcS1_S1_l(ptr noundef nonnull @.str.13, ptr noundef nonnull @__PRETTY_FUNCTION__._ZNK5boost10shared_ptrIN8QuantLib18YieldTermStructureEEptEv, ptr noundef nonnull @.str.14, i64 noundef 784)
  %.pre.i3 = load ptr, ptr %call9, align 8, !tbaa !97
  br label %_ZNK5boost10shared_ptrIN8QuantLib18YieldTermStructureEEptEv.exit4

_ZNK5boost10shared_ptrIN8QuantLib18YieldTermStructureEEptEv.exit4: ; preds = %if.then, %cond.false.i2
  %8 = phi ptr [ %7, %if.then ], [ %.pre.i3, %cond.false.i2 ]
  %9 = load ptr, ptr %curve_, align 8, !tbaa !107
  %vtable12 = load ptr, ptr %9, align 8, !tbaa !14
  %vfn13 = getelementptr inbounds i8, ptr %vtable12, i64 40
  %10 = load ptr, ptr %vfn13, align 8
  %call14 = tail call noundef nonnull align 8 dereferenceable(8) ptr %10(ptr noundef nonnull align 8 dereferenceable(64) %9)
  %call.i = tail call noundef double @_ZNK8QuantLib13TermStructure17timeFromReferenceERKNS_4DateE(ptr noundef nonnull align 8 dereferenceable(64) %8, ptr noundef nonnull align 8 dereferenceable(8) %call14)
  %call2.i = tail call noundef double @_ZNK8QuantLib18YieldTermStructure8discountEdb(ptr noundef nonnull align 8 dereferenceable(152) %8, double noundef %call.i, i1 noundef zeroext false)
  br label %if.end

if.end:                                           ; preds = %_ZNK5boost10shared_ptrIN8QuantLib18YieldTermStructureEEptEv.exit, %_ZNK5boost10shared_ptrIN8QuantLib18YieldTermStructureEEptEv.exit4
  %.sink = phi double [ %call2.i, %_ZNK5boost10shared_ptrIN8QuantLib18YieldTermStructureEEptEv.exit4 ], [ 1.000000e+00, %_ZNK5boost10shared_ptrIN8QuantLib18YieldTermStructureEEptEv.exit ]
  %rebase_16 = getelementptr inbounds nuw i8, ptr %this, i64 192
  store double %.sink, ptr %rebase_16, align 8, !tbaa !102
  tail call void @_ZN8QuantLib23FittedBondDiscountCurve13FittingMethod4initEv(ptr noundef nonnull align 8 dereferenceable(176) %this)
  ret void
}